target datalayout = "e-m:e-p270:32:32-p271:32:32-p272:64:64-i64:64-i128:128-f80:128-n8:16:32:64-S128"
target triple = "x86_64-pc-linux-gnu"

%struct.SDL_Renderer = type { ptr, ptr, ptr, ptr, ptr, ptr, ptr, ptr, ptr, ptr, ptr, ptr, ptr, ptr, ptr, ptr, ptr, ptr, ptr, ptr, ptr, ptr, ptr, ptr, ptr, ptr, ptr, ptr, ptr, ptr, i32, i8, ptr, i8, i8, i8, i64, i64, ptr, %struct.SDL_RenderViewState, %struct.SDL_FPoint, i32, i32, ptr, ptr, ptr, i32, float, float, float, float, %struct.SDL_FColor, i32, i32, i32, ptr, ptr, ptr, ptr, i32, %struct.SDL_FColor, float, %struct.SDL_Rect, %struct.SDL_Rect, i8, i8, i8, i8, ptr, i64, i64, i8, ptr, ptr, i32, ptr, i8, ptr, ptr }
%struct.SDL_RenderViewState = type { i32, i32, %struct.SDL_Rect, %struct.SDL_Rect, %struct.SDL_Rect, %struct.SDL_Rect, i8, %struct.SDL_FPoint, i32, i32, i32, %struct.SDL_FRect, %struct.SDL_FRect, %struct.SDL_FPoint, %struct.SDL_FPoint, %struct.SDL_FPoint }
%struct.SDL_FRect = type { float, float, float, float }
%struct.SDL_FPoint = type { float, float }
%struct.SDL_FColor = type { float, float, float, float }
%struct.SDL_Rect = type { i32, i32, i32, i32 }
%struct.SDL_Texture = type { i32, i32, i32, i32, i32, float, float, i32, i32, i32, %struct.SDL_FColor, %struct.SDL_RenderViewState, ptr, ptr, ptr, ptr, i32, %struct.SDL_Rect, ptr, i32, i32, ptr, ptr, ptr }
%struct.SDL_RenderCommand = type { i32, %union.anon, ptr }
%union.anon = type { %struct.anon.1 }
%struct.anon.1 = type { i64, i64, float, %struct.SDL_FColor, i32, ptr, i32, i32, i32, ptr }
%struct.SDL_VertexSolid = type { %struct.SDL_FPoint, %struct.SDL_FColor }

; Function Attrs: nounwind uwtable
define internal zeroext i1 @GLES2_QueueDrawLines(ptr noundef %0, ptr noundef %1, ptr noundef %2, i32 noundef %3) #0 {
  %5 = alloca i1, align 1
  %6 = alloca ptr, align 8
  %7 = alloca ptr, align 8
  %8 = alloca ptr, align 8
  %9 = alloca i32, align 4
  %10 = alloca i8, align 1
  %11 = alloca i32, align 4
  %12 = alloca float, align 4
  %13 = alloca float, align 4
  %14 = alloca ptr, align 8
  %15 = alloca %struct.SDL_FColor, align 4
  %16 = alloca float, align 4
  %17 = alloca i32, align 4
  %18 = alloca float, align 4
  %19 = alloca float, align 4
  %20 = alloca float, align 4
  %21 = alloca float, align 4
  %22 = alloca float, align 4
  %23 = alloca float, align 4
  %24 = alloca float, align 4
  %25 = alloca float, align 4
  store ptr %0, ptr %6, align 8
  store ptr %1, ptr %7, align 8
  store ptr %2, ptr %8, align 8
  store i32 %3, ptr %9, align 4
  call void @llvm.lifetime.start.p0(i64 1, ptr %10) #6
  %26 = load ptr, ptr %6, align 8
  %27 = getelementptr inbounds nuw %struct.SDL_Renderer, ptr %26, i32 0, i32 44
  %28 = load ptr, ptr %27, align 8
  %29 = icmp ne ptr %28, null
  br i1 %29, label %30, label %46

30:                                               ; preds = %4
  %31 = load ptr, ptr %6, align 8
  %32 = getelementptr inbounds nuw %struct.SDL_Renderer, ptr %31, i32 0, i32 44
  %33 = load ptr, ptr %32, align 8
  %34 = getelementptr inbounds nuw %struct.SDL_Texture, ptr %33, i32 0, i32 0
  %35 = load i32, ptr %34, align 8
  %36 = icmp eq i32 %35, 372645892
  br i1 %36, label %44, label %37

37:                                               ; preds = %30
  %38 = load ptr, ptr %6, align 8
  %39 = getelementptr inbounds nuw %struct.SDL_Renderer, ptr %38, i32 0, i32 44
  %40 = load ptr, ptr %39, align 8
  %41 = getelementptr inbounds nuw %struct.SDL_Texture, ptr %40, i32 0, i32 0
  %42 = load i32, ptr %41, align 8
  %43 = icmp eq i32 %42, 370546692
  br label %44

44:                                               ; preds = %37, %30
  %45 = phi i1 [ true, %30 ], [ %43, %37 ]
  br label %46

46:                                               ; preds = %44, %4
  %47 = phi i1 [ false, %4 ], [ %45, %44 ]
  %48 = zext i1 %47 to i8
  store i8 %48, ptr %10, align 1
  call void @llvm.lifetime.start.p0(i64 4, ptr %11) #6
  call void @llvm.lifetime.start.p0(i64 4, ptr %12) #6
  call void @llvm.lifetime.start.p0(i64 4, ptr %13) #6
  call void @llvm.lifetime.start.p0(i64 8, ptr %14) #6
  %49 = load ptr, ptr %6, align 8
  %50 = load i32, ptr %9, align 4
  %51 = sext i32 %50 to i64
  %52 = mul i64 %51, 24
  %53 = load ptr, ptr %7, align 8
  %54 = getelementptr inbounds nuw %struct.SDL_RenderCommand, ptr %53, i32 0, i32 1
  %55 = getelementptr inbounds nuw %struct.anon.1, ptr %54, i32 0, i32 0
  %56 = call ptr @SDL_AllocateRenderVertices(ptr noundef %49, i64 noundef %52, i64 noundef 0, ptr noundef %55)
  store ptr %56, ptr %14, align 8
  call void @llvm.lifetime.start.p0(i64 16, ptr %15) #6
  %57 = load ptr, ptr %7, align 8
  %58 = getelementptr inbounds nuw %struct.SDL_RenderCommand, ptr %57, i32 0, i32 1
  %59 = getelementptr inbounds nuw %struct.anon.1, ptr %58, i32 0, i32 3
  call void @llvm.memcpy.p0.p0.i64(ptr align 4 %15, ptr align 4 %59, i64 16, i1 false)
  call void @llvm.lifetime.start.p0(i64 4, ptr %16) #6
  %60 = load ptr, ptr %7, align 8
  %61 = getelementptr inbounds nuw %struct.SDL_RenderCommand, ptr %60, i32 0, i32 1
  %62 = getelementptr inbounds nuw %struct.anon.1, ptr %61, i32 0, i32 2
  %63 = load float, ptr %62, align 8
  store float %63, ptr %16, align 4
  %64 = load ptr, ptr %14, align 8
  %65 = icmp ne ptr %64, null
  br i1 %65, label %67, label %66

66:                                               ; preds = %46
  store i1 false, ptr %5, align 1
  store i32 1, ptr %17, align 4
  br label %170

67:                                               ; preds = %46
  %68 = load float, ptr %16, align 4
  %69 = getelementptr inbounds nuw %struct.SDL_FColor, ptr %15, i32 0, i32 0
  %70 = load float, ptr %69, align 4
  %71 = fmul float %70, %68
  store float %71, ptr %69, align 4
  %72 = load float, ptr %16, align 4
  %73 = getelementptr inbounds nuw %struct.SDL_FColor, ptr %15, i32 0, i32 1
  %74 = load float, ptr %73, align 4
  %75 = fmul float %74, %72
  store float %75, ptr %73, align 4
  %76 = load float, ptr %16, align 4
  %77 = getelementptr inbounds nuw %struct.SDL_FColor, ptr %15, i32 0, i32 2
  %78 = load float, ptr %77, align 4
  %79 = fmul float %78, %76
  store float %79, ptr %77, align 4
  %80 = load i8, ptr %10, align 1, !range !3, !noundef !4
  %81 = trunc i8 %80 to i1
  br i1 %81, label %82, label %90

82:                                               ; preds = %67
  call void @llvm.lifetime.start.p0(i64 4, ptr %18) #6
  %83 = getelementptr inbounds nuw %struct.SDL_FColor, ptr %15, i32 0, i32 0
  %84 = load float, ptr %83, align 4
  store float %84, ptr %18, align 4
  %85 = getelementptr inbounds nuw %struct.SDL_FColor, ptr %15, i32 0, i32 2
  %86 = load float, ptr %85, align 4
  %87 = getelementptr inbounds nuw %struct.SDL_FColor, ptr %15, i32 0, i32 0
  store float %86, ptr %87, align 4
  %88 = load float, ptr %18, align 4
  %89 = getelementptr inbounds nuw %struct.SDL_FColor, ptr %15, i32 0, i32 2
  store float %88, ptr %89, align 4
  call void @llvm.lifetime.end.p0(i64 4, ptr %18) #6
  br label %90

90:                                               ; preds = %82, %67
  %91 = load i32, ptr %9, align 4
  %92 = sext i32 %91 to i64
  %93 = load ptr, ptr %7, align 8
  %94 = getelementptr inbounds nuw %struct.SDL_RenderCommand, ptr %93, i32 0, i32 1
  %95 = getelementptr inbounds nuw %struct.anon.1, ptr %94, i32 0, i32 1
  store i64 %92, ptr %95, align 8
  %96 = load ptr, ptr %8, align 8
  %97 = getelementptr inbounds nuw %struct.SDL_FPoint, ptr %96, i32 0, i32 0
  %98 = load float, ptr %97, align 4
  %99 = fadd float 5.000000e-01, %98
  store float %99, ptr %12, align 4
  %100 = load ptr, ptr %8, align 8
  %101 = getelementptr inbounds nuw %struct.SDL_FPoint, ptr %100, i32 0, i32 1
  %102 = load float, ptr %101, align 4
  %103 = fadd float 5.000000e-01, %102
  store float %103, ptr %13, align 4
  %104 = load float, ptr %12, align 4
  %105 = load ptr, ptr %14, align 8
  %106 = getelementptr inbounds nuw %struct.SDL_VertexSolid, ptr %105, i32 0, i32 0
  %107 = getelementptr inbounds nuw %struct.SDL_FPoint, ptr %106, i32 0, i32 0
  store float %104, ptr %107, align 4
  %108 = load float, ptr %13, align 4
  %109 = load ptr, ptr %14, align 8
  %110 = getelementptr inbounds nuw %struct.SDL_VertexSolid, ptr %109, i32 0, i32 0
  %111 = getelementptr inbounds nuw %struct.SDL_FPoint, ptr %110, i32 0, i32 1
  store float %108, ptr %111, align 4
  %112 = load ptr, ptr %14, align 8
  %113 = getelementptr inbounds nuw %struct.SDL_VertexSolid, ptr %112, i32 0, i32 1
  call void @llvm.memcpy.p0.p0.i64(ptr align 4 %113, ptr align 4 %15, i64 16, i1 false)
  %114 = load ptr, ptr %14, align 8
  %115 = getelementptr inbounds nuw %struct.SDL_VertexSolid, ptr %114, i32 1
  store ptr %115, ptr %14, align 8
  store i32 1, ptr %11, align 4
  br label %116

116:                                              ; preds = %166, %90
  %117 = load i32, ptr %11, align 4
  %118 = load i32, ptr %9, align 4
  %119 = icmp slt i32 %117, %118
  br i1 %119, label %120, label %169

120:                                              ; preds = %116
  call void @llvm.lifetime.start.p0(i64 4, ptr %19) #6
  %121 = load float, ptr %12, align 4
  store float %121, ptr %19, align 4
  call void @llvm.lifetime.start.p0(i64 4, ptr %20) #6
  %122 = load float, ptr %13, align 4
  store float %122, ptr %20, align 4
  call void @llvm.lifetime.start.p0(i64 4, ptr %21) #6
  %123 = load ptr, ptr %8, align 8
  %124 = load i32, ptr %11, align 4
  %125 = sext i32 %124 to i64
  %126 = getelementptr inbounds %struct.SDL_FPoint, ptr %123, i64 %125
  %127 = getelementptr inbounds nuw %struct.SDL_FPoint, ptr %126, i32 0, i32 0
  %128 = load float, ptr %127, align 4
  %129 = fadd float %128, 5.000000e-01
  store float %129, ptr %21, align 4
  call void @llvm.lifetime.start.p0(i64 4, ptr %22) #6
  %130 = load ptr, ptr %8, align 8
  %131 = load i32, ptr %11, align 4
  %132 = sext i32 %131 to i64
  %133 = getelementptr inbounds %struct.SDL_FPoint, ptr %130, i64 %132
  %134 = getelementptr inbounds nuw %struct.SDL_FPoint, ptr %133, i32 0, i32 1
  %135 = load float, ptr %134, align 4
  %136 = fadd float %135, 5.000000e-01
  store float %136, ptr %22, align 4
  call void @llvm.lifetime.start.p0(i64 4, ptr %23) #6
  %137 = load float, ptr %21, align 4
  %138 = load float, ptr %19, align 4
  %139 = fsub float %137, %138
  store float %139, ptr %23, align 4
  call void @llvm.lifetime.start.p0(i64 4, ptr %24) #6
  %140 = load float, ptr %22, align 4
  %141 = load float, ptr %20, align 4
  %142 = fsub float %140, %141
  store float %142, ptr %24, align 4
  call void @llvm.lifetime.start.p0(i64 4, ptr %25) #6
  %143 = load float, ptr %24, align 4
  %144 = load float, ptr %23, align 4
  %145 = call float @SDL_atan2f_REAL(float noundef %143, float noundef %144)
  store float %145, ptr %25, align 4
  %146 = load float, ptr %21, align 4
  %147 = load float, ptr %25, align 4
  %148 = call float @SDL_cosf_REAL(float noundef %147)
  %149 = call float @llvm.fmuladd.f32(float %148, float 2.500000e-01, float %146)
  store float %149, ptr %12, align 4
  %150 = load float, ptr %22, align 4
  %151 = load float, ptr %25, align 4
  %152 = call float @SDL_sinf_REAL(float noundef %151)
  %153 = call float @llvm.fmuladd.f32(float %152, float 2.500000e-01, float %150)
  store float %153, ptr %13, align 4
  %154 = load float, ptr %12, align 4
  %155 = load ptr, ptr %14, align 8
  %156 = getelementptr inbounds nuw %struct.SDL_VertexSolid, ptr %155, i32 0, i32 0
  %157 = getelementptr inbounds nuw %struct.SDL_FPoint, ptr %156, i32 0, i32 0
  store float %154, ptr %157, align 4
  %158 = load float, ptr %13, align 4
  %159 = load ptr, ptr %14, align 8
  %160 = getelementptr inbounds nuw %struct.SDL_VertexSolid, ptr %159, i32 0, i32 0
  %161 = getelementptr inbounds nuw %struct.SDL_FPoint, ptr %160, i32 0, i32 1
  store float %158, ptr %161, align 4
  %162 = load ptr, ptr %14, align 8
  %163 = getelementptr inbounds nuw %struct.SDL_VertexSolid, ptr %162, i32 0, i32 1
  call void @llvm.memcpy.p0.p0.i64(ptr align 4 %163, ptr align 4 %15, i64 16, i1 false)
  %164 = load ptr, ptr %14, align 8
  %165 = getelementptr inbounds nuw %struct.SDL_VertexSolid, ptr %164, i32 1
  store ptr %165, ptr %14, align 8
  call void @llvm.lifetime.end.p0(i64 4, ptr %25) #6
  call void @llvm.lifetime.end.p0(i64 4, ptr %24) #6
  call void @llvm.lifetime.end.p0(i64 4, ptr %23) #6
  call void @llvm.lifetime.end.p0(i64 4, ptr %22) #6
  call void @llvm.lifetime.end.p0(i64 4, ptr %21) #6
  call void @llvm.lifetime.end.p0(i64 4, ptr %20) #6
  call void @llvm.lifetime.end.p0(i64 4, ptr %19) #6
  br label %166

166:                                              ; preds = %120
  %167 = load i32, ptr %11, align 4
  %168 = add nsw i32 %167, 1
  store i32 %168, ptr %11, align 4
  br label %116, !llvm.loop !8

169:                                              ; preds = %116
  store i1 true, ptr %5, align 1
  store i32 1, ptr %17, align 4
  br label %170

170:                                              ; preds = %169, %66
  call void @llvm.lifetime.end.p0(i64 4, ptr %16) #6
  call void @llvm.lifetime.end.p0(i64 16, ptr %15) #6
  call void @llvm.lifetime.end.p0(i64 8, ptr %14) #6
  call void @llvm.lifetime.end.p0(i64 4, ptr %13) #6
  call void @llvm.lifetime.end.p0(i64 4, ptr %12) #6
  call void @llvm.lifetime.end.p0(i64 4, ptr %11) #6
  call void @llvm.lifetime.end.p0(i64 1, ptr %10) #6
  %171 = load i1, ptr %5, align 1
  ret i1 %171
}