; Function Attrs: nounwind uwtable
define internal noundef zeroext i1 @GLES2_QueueDrawLines(ptr noundef %0, ptr noundef %1, ptr noundef readonly captures(none) %2, i32 noundef %3) #0 {
  %5 = getelementptr inbounds nuw i8, ptr %0, i64 464
  %6 = load ptr, ptr %5, align 8
  %.not = icmp eq ptr %6, null
  br i1 %.not, label %11, label %7

7:                                                ; preds = %4
  %8 = load i32, ptr %6, align 8
  %9 = icmp eq i32 %8, 372645892
  %10 = icmp eq i32 %8, 370546692
  %spec.select = or i1 %9, %10
  br label %11

11:                                               ; preds = %7, %4
  %12 = phi i1 [ false, %4 ], [ %spec.select, %7 ]
  %13 = sext i32 %3 to i64
  %14 = mul nsw i64 %13, 24
  %15 = getelementptr inbounds nuw i8, ptr %1, i64 8
  %16 = tail call ptr @SDL_AllocateRenderVertices(ptr noundef nonnull %0, i64 noundef %14, i64 noundef 0, ptr noundef nonnull %15) #10
  %.sroa.15.0..sroa_idx = getelementptr inbounds nuw i8, ptr %1, i64 40
  %.sroa.15.0.copyload = load float, ptr %.sroa.15.0..sroa_idx, align 4
  %.not72 = icmp ne ptr %16, null
  br i1 %.not72, label %17, label %.loopexit

17:                                               ; preds = %11
  %18 = getelementptr inbounds nuw i8, ptr %1, i64 24
  %19 = load float, ptr %18, align 8
  %20 = getelementptr inbounds nuw i8, ptr %1, i64 28
  %.sroa.11.0..sroa_idx = getelementptr inbounds nuw i8, ptr %1, i64 36
  %.sroa.11.0.copyload = load float, ptr %.sroa.11.0..sroa_idx, align 4
  %.sroa.9.0..sroa_idx = getelementptr inbounds nuw i8, ptr %1, i64 32
  %.sroa.9.0.copyload = load float, ptr %.sroa.9.0..sroa_idx, align 4
  %.sroa.0.0.copyload = load float, ptr %20, align 4
  %21 = fmul float %19, %.sroa.0.0.copyload
  %22 = fmul float %19, %.sroa.9.0.copyload
  %23 = fmul float %19, %.sroa.11.0.copyload
  %.sroa.0.0 = select i1 %12, float %23, float %21
  %.sroa.11.0 = select i1 %12, float %21, float %23
  %24 = getelementptr inbounds nuw i8, ptr %1, i64 16
  store i64 %13, ptr %24, align 8
  %25 = load float, ptr %2, align 4
  %26 = fadd float %25, 5.000000e-01
  %27 = getelementptr inbounds nuw i8, ptr %2, i64 4
  %28 = load float, ptr %27, align 4
  %29 = fadd float %28, 5.000000e-01
  store float %26, ptr %16, align 4
  %30 = getelementptr inbounds nuw i8, ptr %16, i64 4
  store float %29, ptr %30, align 4
  %31 = getelementptr inbounds nuw i8, ptr %16, i64 8
  store float %.sroa.0.0, ptr %31, align 4
  %.sroa.9.0..sroa_idx17 = getelementptr inbounds nuw i8, ptr %16, i64 12
  store float %22, ptr %.sroa.9.0..sroa_idx17, align 4
  %.sroa.11.0..sroa_idx21 = getelementptr inbounds nuw i8, ptr %16, i64 16
  store float %.sroa.11.0, ptr %.sroa.11.0..sroa_idx21, align 4
  %.sroa.15.0..sroa_idx26 = getelementptr inbounds nuw i8, ptr %16, i64 20
  store float %.sroa.15.0.copyload, ptr %.sroa.15.0..sroa_idx26, align 4
  %32 = icmp sgt i32 %3, 1
  br i1 %32, label %.lr.ph.preheader, label %.loopexit

.lr.ph.preheader:                                 ; preds = %17
  %wide.trip.count = zext nneg i32 %3 to i64
  br label %.lr.ph

.lr.ph:                                           ; preds = %.lr.ph.preheader, %.lr.ph
  %indvars.iv = phi i64 [ 1, %.lr.ph.preheader ], [ %indvars.iv.next, %.lr.ph ]
  %.06675 = phi float [ %26, %.lr.ph.preheader ], [ %43, %.lr.ph ]
  %.06774 = phi float [ %29, %.lr.ph.preheader ], [ %45, %.lr.ph ]
  %.pn73 = phi ptr [ %16, %.lr.ph.preheader ], [ %.068, %.lr.ph ]
  %.068 = getelementptr inbounds nuw i8, ptr %.pn73, i64 24
  %33 = getelementptr inbounds nuw %struct.SDL_FPoint, ptr %2, i64 %indvars.iv
  %34 = load float, ptr %33, align 4
  %35 = fadd float %34, 5.000000e-01
  %36 = getelementptr inbounds nuw i8, ptr %33, i64 4
  %37 = load float, ptr %36, align 4
  %38 = fadd float %37, 5.000000e-01
  %39 = fsub float %35, %.06675
  %40 = fsub float %38, %.06774
  %41 = tail call float @SDL_atan2f_REAL(float noundef %40, float noundef %39) #10
  %42 = tail call float @SDL_cosf_REAL(float noundef %41) #10
  %43 = tail call float @llvm.fmuladd.f32(float %42, float 2.500000e-01, float %35)
  %44 = tail call float @SDL_sinf_REAL(float noundef %41) #10
  %45 = tail call float @llvm.fmuladd.f32(float %44, float 2.500000e-01, float %38)
  store float %43, ptr %.068, align 4
  %46 = getelementptr inbounds nuw i8, ptr %.pn73, i64 28
  store float %45, ptr %46, align 4
  %47 = getelementptr inbounds nuw i8, ptr %.pn73, i64 32
  store float %.sroa.0.0, ptr %47, align 4
  %.sroa.9.0..sroa_idx19 = getelementptr inbounds nuw i8, ptr %.pn73, i64 36
  store float %22, ptr %.sroa.9.0..sroa_idx19, align 4
  %.sroa.11.0..sroa_idx23 = getelementptr inbounds nuw i8, ptr %.pn73, i64 40
  store float %.sroa.11.0, ptr %.sroa.11.0..sroa_idx23, align 4
  %.sroa.15.0..sroa_idx28 = getelementptr inbounds nuw i8, ptr %.pn73, i64 44
  store float %.sroa.15.0.copyload, ptr %.sroa.15.0..sroa_idx28, align 4
  %indvars.iv.next = add nuw nsw i64 %indvars.iv, 1
  %exitcond.not = icmp eq i64 %indvars.iv.next, %wide.trip.count
  br i1 %exitcond.not, label %.loopexit, label %.lr.ph, !llvm.loop !11

.loopexit:                                        ; preds = %.lr.ph, %17, %11
  ret i1 %.not72
}